; Function Attrs: mustprogress uwtable
define dso_local void @_ZNK10btBoxShape21calculateLocalInertiaEfR9btVector3(ptr noundef nonnull align 8 dereferenceable(80) %this, float noundef %mass, ptr nocapture noundef nonnull writeonly align 4 dereferenceable(16) %inertia) unnamed_addr #0 align 2 {
entry:
  %m_implicitShapeDimensions.i.i = getelementptr inbounds i8, ptr %this, i64 48
  %retval.sroa.0.0.copyload.i = load <2 x float>, ptr %m_implicitShapeDimensions.i.i, align 8
  %retval.sroa.6.0.m_implicitShapeDimensions.i.sroa_idx.i = getelementptr inbounds i8, ptr %this, i64 56
  %retval.sroa.6.0.copyload.i = load <2 x float>, ptr %retval.sroa.6.0.m_implicitShapeDimensions.i.sroa_idx.i, align 8
  %vtable.i = load ptr, ptr %this, align 8
  %vfn.i = getelementptr inbounds i8, ptr %vtable.i, i64 96
  %0 = load ptr, ptr %vfn.i, align 8
  %call2.i = tail call noundef float %0(ptr noundef nonnull align 8 dereferenceable(72) %this)
  %vtable4.i = load ptr, ptr %this, align 8
  %vfn5.i = getelementptr inbounds i8, ptr %vtable4.i, i64 96
  %1 = load ptr, ptr %vfn5.i, align 8
  %call6.i = tail call noundef float %1(ptr noundef nonnull align 8 dereferenceable(72) %this)
  %vtable8.i = load ptr, ptr %this, align 8
  %vfn9.i = getelementptr inbounds i8, ptr %vtable8.i, i64 96
  %2 = load ptr, ptr %vfn9.i, align 8
  %call10.i = tail call noundef float %2(ptr noundef nonnull align 8 dereferenceable(72) %this)
  %retval.sroa.6.8.vec.extract.i = extractelement <2 x float> %retval.sroa.6.0.copyload.i, i64 0
  %add13.i.i = fadd float %retval.sroa.6.8.vec.extract.i, %call10.i
  %mul6 = fmul float %add13.i.i, 2.000000e+00
  %div = fdiv float %mass, 1.200000e+01
  %mul8 = fmul float %mul6, %mul6
  %3 = insertelement <2 x float> poison, float %call2.i, i64 0
  %4 = insertelement <2 x float> %3, float %call6.i, i64 1
  %5 = fadd <2 x float> %retval.sroa.0.0.copyload.i, %4
  %6 = fmul <2 x float> %5, <float 2.000000e+00, float 2.000000e+00>
  %7 = insertelement <2 x float> poison, float %mul8, i64 0
  %8 = shufflevector <2 x float> %7, <2 x float> poison, <2 x i32> zeroinitializer
  %9 = tail call <2 x float> @llvm.fmuladd.v2f32(<2 x float> %6, <2 x float> %6, <2 x float> %8)
  %10 = insertelement <2 x float> poison, float %div, i64 0
  %11 = shufflevector <2 x float> %10, <2 x float> poison, <2 x i32> zeroinitializer
  %12 = fmul <2 x float> %11, %9
  %13 = fmul <2 x float> %6, %6
  %mul18 = extractelement <2 x float> %13, i64 1
  %14 = extractelement <2 x float> %6, i64 0
  %15 = tail call float @llvm.fmuladd.f32(float %14, float %14, float %mul18)
  %mul19 = fmul float %div, %15
  %16 = shufflevector <2 x float> %12, <2 x float> poison, <2 x i32> <i32 1, i32 0>
  store <2 x float> %16, ptr %inertia, align 4
  %arrayidx5.i = getelementptr inbounds i8, ptr %inertia, i64 8
  store float %mul19, ptr %arrayidx5.i, align 4
  %arrayidx7.i = getelementptr inbounds i8, ptr %inertia, i64 12
  store float 0.000000e+00, ptr %arrayidx7.i, align 4
  ret void
}